target datalayout = "e-m:e-p270:32:32-p271:32:32-p272:64:64-i64:64-i128:128-f80:128-n8:16:32:64-S128"
target triple = "x86_64-pc-linux-gnu"

%struct.hpa_hooks_s = type { ptr, ptr, ptr, ptr, ptr, ptr, ptr }
%struct.nstime_t = type { i64 }

@je_hpa_hooks_default = hidden constant %struct.hpa_hooks_s { ptr @hpa_hooks_map, ptr @hpa_hooks_unmap, ptr @hpa_hooks_purge, ptr @hpa_hooks_hugify, ptr @hpa_hooks_dehugify, ptr @hpa_hooks_curtime, ptr @hpa_hooks_ms_since }, align 8
@je_nstime_update = external constant ptr, align 8
@nstime_zero = internal constant %struct.nstime_t zeroinitializer, align 8

; Function Attrs: nounwind uwtable
define internal ptr @hpa_hooks_map(i64 noundef %0) #0 {
  %2 = alloca i64, align 8
  %3 = alloca i8, align 1
  store i64 %0, ptr %2, align 8, !tbaa !4
  call void @llvm.lifetime.start.p0(i64 1, ptr %3) #4
  store i8 1, ptr %3, align 1, !tbaa !8
  %4 = load i64, ptr %2, align 8, !tbaa !4
  %5 = call ptr @je_pages_map(ptr noundef null, i64 noundef %4, i64 noundef 2097152, ptr noundef %3)
  call void @llvm.lifetime.end.p0(i64 1, ptr %3) #4
  ret ptr %5
}

; Function Attrs: nounwind uwtable
define internal void @hpa_hooks_unmap(ptr noundef %0, i64 noundef %1) #0 {
  %3 = alloca ptr, align 8
  %4 = alloca i64, align 8
  store ptr %0, ptr %3, align 8, !tbaa !10
  store i64 %1, ptr %4, align 8, !tbaa !4
  %5 = load ptr, ptr %3, align 8, !tbaa !10
  %6 = load i64, ptr %4, align 8, !tbaa !4
  call void @je_pages_unmap(ptr noundef %5, i64 noundef %6)
  ret void
}

; Function Attrs: nounwind uwtable
define internal void @hpa_hooks_purge(ptr noundef %0, i64 noundef %1) #0 {
  %3 = alloca ptr, align 8
  %4 = alloca i64, align 8
  store ptr %0, ptr %3, align 8, !tbaa !10
  store i64 %1, ptr %4, align 8, !tbaa !4
  %5 = load ptr, ptr %3, align 8, !tbaa !10
  %6 = load i64, ptr %4, align 8, !tbaa !4
  %7 = call zeroext i1 @je_pages_purge_forced(ptr noundef %5, i64 noundef %6)
  ret void
}

; Function Attrs: nounwind uwtable
define internal zeroext i1 @hpa_hooks_hugify(ptr noundef %0, i64 noundef %1, i1 noundef zeroext %2) #0 {
  %4 = alloca ptr, align 8
  %5 = alloca i64, align 8
  %6 = alloca i8, align 1
  %7 = alloca i8, align 1
  store ptr %0, ptr %4, align 8, !tbaa !10
  store i64 %1, ptr %5, align 8, !tbaa !4
  %8 = zext i1 %2 to i8
  store i8 %8, ptr %6, align 1, !tbaa !8
  call void @llvm.lifetime.start.p0(i64 1, ptr %7) #4
  %9 = load ptr, ptr %4, align 8, !tbaa !10
  %10 = load i64, ptr %5, align 8, !tbaa !4
  %11 = call zeroext i1 @je_pages_huge(ptr noundef %9, i64 noundef %10)
  %12 = zext i1 %11 to i8
  store i8 %12, ptr %7, align 1, !tbaa !8
  %13 = load i8, ptr %6, align 1, !tbaa !8, !range !12, !noundef !13
  %14 = trunc i8 %13 to i1
  br i1 %14, label %15, label %20

15:                                               ; preds = %3
  %16 = load ptr, ptr %4, align 8, !tbaa !10
  %17 = load i64, ptr %5, align 8, !tbaa !4
  %18 = call zeroext i1 @je_pages_collapse(ptr noundef %16, i64 noundef %17)
  %19 = zext i1 %18 to i8
  store i8 %19, ptr %7, align 1, !tbaa !8
  br label %20

20:                                               ; preds = %15, %3
  %21 = load i8, ptr %7, align 1, !tbaa !8, !range !12, !noundef !13
  %22 = trunc i8 %21 to i1
  call void @llvm.lifetime.end.p0(i64 1, ptr %7) #4
  ret i1 %22
}

; Function Attrs: nounwind uwtable
define internal void @hpa_hooks_dehugify(ptr noundef %0, i64 noundef %1) #0 {
  %3 = alloca ptr, align 8
  %4 = alloca i64, align 8
  %5 = alloca i8, align 1
  store ptr %0, ptr %3, align 8, !tbaa !10
  store i64 %1, ptr %4, align 8, !tbaa !4
  call void @llvm.lifetime.start.p0(i64 1, ptr %5) #4
  %6 = load ptr, ptr %3, align 8, !tbaa !10
  %7 = load i64, ptr %4, align 8, !tbaa !4
  %8 = call zeroext i1 @je_pages_nohuge(ptr noundef %6, i64 noundef %7)
  %9 = zext i1 %8 to i8
  store i8 %9, ptr %5, align 1, !tbaa !8
  call void @llvm.lifetime.end.p0(i64 1, ptr %5) #4
  ret void
}

; Function Attrs: nounwind uwtable
define internal void @hpa_hooks_curtime(ptr noundef %0, i1 noundef zeroext %1) #0 {
  %3 = alloca ptr, align 8
  %4 = alloca i8, align 1
  store ptr %0, ptr %3, align 8, !tbaa !10
  %5 = zext i1 %1 to i8
  store i8 %5, ptr %4, align 1, !tbaa !8
  %6 = load i8, ptr %4, align 1, !tbaa !8, !range !12, !noundef !13
  %7 = trunc i8 %6 to i1
  br i1 %7, label %8, label %10

8:                                                ; preds = %2
  %9 = load ptr, ptr %3, align 8, !tbaa !10
  call void @nstime_init_zero(ptr noundef %9)
  br label %10

10:                                               ; preds = %8, %2
  %11 = load ptr, ptr @je_nstime_update, align 8, !tbaa !10
  %12 = load ptr, ptr %3, align 8, !tbaa !10
  call void %11(ptr noundef %12)
  ret void
}

; Function Attrs: nounwind uwtable
define internal i64 @hpa_hooks_ms_since(ptr noundef %0) #0 {
  %2 = alloca ptr, align 8
  store ptr %0, ptr %2, align 8, !tbaa !10
  %3 = load ptr, ptr %2, align 8, !tbaa !10
  %4 = call i64 @je_nstime_ms_since(ptr noundef %3)
  ret i64 %4
}

; Function Attrs: nocallback nofree nosync nounwind willreturn memory(argmem: readwrite)
declare void @llvm.lifetime.start.p0(i64 immarg, ptr captures(none)) #1

declare ptr @je_pages_map(ptr noundef, i64 noundef, i64 noundef, ptr noundef) #2

; Function Attrs: nocallback nofree nosync nounwind willreturn memory(argmem: readwrite)
declare void @llvm.lifetime.end.p0(i64 immarg, ptr captures(none)) #1

declare void @je_pages_unmap(ptr noundef, i64 noundef) #2

declare zeroext i1 @je_pages_purge_forced(ptr noundef, i64 noundef) #2

declare zeroext i1 @je_pages_huge(ptr noundef, i64 noundef) #2

declare zeroext i1 @je_pages_collapse(ptr noundef, i64 noundef) #2

declare zeroext i1 @je_pages_nohuge(ptr noundef, i64 noundef) #2

; Function Attrs: alwaysinline nounwind uwtable
define internal void @nstime_init_zero(ptr noundef %0) #3 {
  %2 = alloca ptr, align 8
  store ptr %0, ptr %2, align 8, !tbaa !10
  %3 = load ptr, ptr %2, align 8, !tbaa !10
  call void @je_nstime_copy(ptr noundef %3, ptr noundef @nstime_zero)
  ret void
}

declare void @je_nstime_copy(ptr noundef, ptr noundef) #2

declare i64 @je_nstime_ms_since(ptr noundef) #2


!llvm.module.flags = !{!0, !1, !2, !3}

!0 = !{i32 1, !"wchar_size", i32 4}
!1 = !{i32 8, !"PIC Level", i32 2}
!2 = !{i32 7, !"PIE Level", i32 2}
!3 = !{i32 7, !"uwtable", i32 2}
!4 = !{!5, !5, i64 0}
!5 = !{!"long", !6, i64 0}
!6 = !{!"omnipotent char", !7, i64 0}
!7 = !{!"Simple C/C++ TBAA"}
!8 = !{!9, !9, i64 0}
!9 = !{!"_Bool", !6, i64 0}
!10 = !{!11, !11, i64 0}
!11 = !{!"any pointer", !6, i64 0}
!12 = !{i8 0, i8 2}
!13 = !{}
